; Function Attrs: nounwind uwtable
define internal noundef ptr @_testcapi_exception_print(ptr readnone captures(none) %0, ptr noundef readonly captures(none) %1, i64 noundef %2) #0 {
  %4 = add i64 %2, -1
  %or.cond = icmp ult i64 %4, 2
  br i1 %or.cond, label %7, label %5

5:                                                ; preds = %3
  %6 = tail call i32 @_PyArg_CheckPositional(ptr noundef nonnull @.str.7, i64 noundef %2, i64 noundef 1, i64 noundef 2) #8
  %.not = icmp eq i32 %6, 0
  br i1 %.not, label %_testcapi_exception_print_impl.exit, label %7

7:                                                ; preds = %3, %5
  %8 = load ptr, ptr %1, align 8, !tbaa !3
  %9 = icmp slt i64 %2, 2
  br i1 %9, label %.thread, label %10

10:                                               ; preds = %7
  %11 = getelementptr i8, ptr %1, i64 8
  %12 = load ptr, ptr %11, align 8, !tbaa !3
  %13 = tail call i32 @PyObject_IsTrue(ptr noundef %12) #8
  %14 = icmp slt i32 %13, 0
  br i1 %14, label %_testcapi_exception_print_impl.exit, label %15

15:                                               ; preds = %10
  %.not.i = icmp eq i32 %13, 0
  br i1 %.not.i, label %.thread, label %16

16:                                               ; preds = %15
  %17 = getelementptr i8, ptr %8, i64 8
  %.val.i = load ptr, ptr %17, align 8, !tbaa !22
  %18 = getelementptr i8, ptr %.val.i, i64 168
  %.val9.i = load i64, ptr %18, align 8, !tbaa !23
  %19 = and i64 %.val9.i, 1073741824
  %.not7.i = icmp eq i64 %19, 0
  br i1 %.not7.i, label %.thread.i, label %20

.thread.i:                                        ; preds = %16
  tail call void @PyErr_Display(ptr noundef nonnull %.val.i, ptr noundef nonnull %8, ptr noundef null) #8
  br label %_testcapi_exception_print_impl.exit

20:                                               ; preds = %16
  %21 = tail call ptr @PyException_GetTraceback(ptr noundef nonnull %8) #8
  %.val8.i = load ptr, ptr %17, align 8, !tbaa !22
  tail call void @PyErr_Display(ptr noundef %.val8.i, ptr noundef nonnull %8, ptr noundef %21) #8
  %.not.i.i = icmp eq ptr %21, null
  br i1 %.not.i.i, label %_testcapi_exception_print_impl.exit, label %22

22:                                               ; preds = %20
  %23 = load i32, ptr %21, align 8, !tbaa !20
  %.not.i.i.i = icmp sgt i32 %23, -1
  br i1 %.not.i.i.i, label %24, label %_testcapi_exception_print_impl.exit

24:                                               ; preds = %22
  %25 = add nsw i32 %23, -1
  store i32 %25, ptr %21, align 8, !tbaa !20
  %26 = icmp eq i32 %25, 0
  br i1 %26, label %27, label %_testcapi_exception_print_impl.exit

27:                                               ; preds = %24
  tail call void @_Py_Dealloc(ptr noundef nonnull %21) #8
  br label %_testcapi_exception_print_impl.exit

.thread:                                          ; preds = %7, %15
  tail call void @PyErr_DisplayException(ptr noundef %8) #8
  br label %_testcapi_exception_print_impl.exit

_testcapi_exception_print_impl.exit:              ; preds = %.thread, %27, %24, %22, %20, %.thread.i, %10, %5
  %.011 = phi ptr [ null, %10 ], [ null, %5 ], [ @_Py_NoneStruct, %.thread.i ], [ @_Py_NoneStruct, %20 ], [ @_Py_NoneStruct, %22 ], [ @_Py_NoneStruct, %24 ], [ @_Py_NoneStruct, %27 ], [ @_Py_NoneStruct, %.thread ]
  ret ptr %.011
}